target datalayout = "e-m:e-p270:32:32-p271:32:32-p272:64:64-i64:64-i128:128-f80:128-n8:16:32:64-S128"
target triple = "x86_64-pc-linux-gnu"

; Function Attrs: mustprogress uwtable
define noundef i32 @_ZN3zmq15tune_tcp_socketEi(i32 noundef %0) #0 {
  %2 = alloca i32, align 4
  %3 = alloca i32, align 4
  %4 = alloca i32, align 4
  %5 = alloca i32, align 4
  %6 = alloca i32, align 4
  store i32 %0, ptr %3, align 4, !tbaa !3
  call void @llvm.lifetime.start.p0(i64 4, ptr %4) #7
  store i32 1, ptr %4, align 4, !tbaa !3
  call void @llvm.lifetime.start.p0(i64 4, ptr %5) #7
  %7 = load i32, ptr %3, align 4, !tbaa !3
  %8 = call i32 @setsockopt(i32 noundef %7, i32 noundef 6, i32 noundef 1, ptr noundef %4, i32 noundef 4) #7
  store i32 %8, ptr %5, align 4, !tbaa !3
  %9 = load i32, ptr %3, align 4, !tbaa !3
  %10 = load i32, ptr %5, align 4, !tbaa !3
  call void @_ZN3zmq29assert_success_or_recoverableEii(i32 noundef %9, i32 noundef %10)
  %11 = load i32, ptr %5, align 4, !tbaa !3
  %12 = icmp ne i32 %11, 0
  br i1 %12, label %13, label %15

13:                                               ; preds = %1
  %14 = load i32, ptr %5, align 4, !tbaa !3
  store i32 %14, ptr %2, align 4
  store i32 1, ptr %6, align 4
  br label %17

15:                                               ; preds = %1
  %16 = load i32, ptr %5, align 4, !tbaa !3
  store i32 %16, ptr %2, align 4
  store i32 1, ptr %6, align 4
  br label %17

17:                                               ; preds = %15, %13
  call void @llvm.lifetime.end.p0(i64 4, ptr %5) #7
  call void @llvm.lifetime.end.p0(i64 4, ptr %4) #7
  %18 = load i32, ptr %2, align 4
  ret i32 %18
}