; Function Attrs: mustprogress uwtable
define noundef i32 @_ZN3zmq15tune_tcp_socketEi(i32 noundef %0) local_unnamed_addr #0 {
  %2 = alloca i32, align 4
  call void @llvm.lifetime.start.p0(i64 4, ptr nonnull %2) #7
  store i32 1, ptr %2, align 4, !tbaa !3
  %3 = call i32 @setsockopt(i32 noundef %0, i32 noundef 6, i32 noundef 1, ptr noundef nonnull %2, i32 noundef 4) #7
  call void @_ZN3zmq29assert_success_or_recoverableEii(i32 noundef %0, i32 noundef %3)
  call void @llvm.lifetime.end.p0(i64 4, ptr nonnull %2) #7
  ret i32 %3
}